target datalayout = "e-m:e-p270:32:32-p271:32:32-p272:64:64-i64:64-i128:128-f80:128-n8:16:32:64-S128"
target triple = "x86_64-pc-linux-gnu"

%struct.FunctionCallInfoBaseData = type { ptr, ptr, ptr, i32, i8, i16, [0 x %struct.NullableDatum] }
%struct.NullableDatum = type { i64, i8 }

@cookies = internal global ptr null, align 8
@cookies_size = internal global i32 0, align 4
@.str.1 = private unnamed_addr constant [36 x i8] c"invalid large-object descriptor: %d\00", align 1
@.str.2 = private unnamed_addr constant [13 x i8] c"be-fsstubs.c\00", align 1
@__func__.be_lo_lseek = private unnamed_addr constant [12 x i8] c"be_lo_lseek\00", align 1
@.str.5 = private unnamed_addr constant [60 x i8] c"lo_lseek result out of range for large-object descriptor %d\00", align 1

; Function Attrs: inlinehint nounwind uwtable
define internal i64 @Int32GetDatum(i32 noundef %0) #2 {
  %2 = alloca i32, align 4
  store i32 %0, ptr %2, align 4
  %3 = load i32, ptr %2, align 4
  %4 = sext i32 %3 to i64
  ret i64 %4
}

; Function Attrs: inlinehint nounwind uwtable
define internal i32 @DatumGetInt32(i64 noundef %0) #2 {
  %2 = alloca i64, align 8
  store i64 %0, ptr %2, align 8
  %3 = load i64, ptr %2, align 8
  %4 = trunc i64 %3 to i32
  ret i32 %4
}

; Function Attrs: nounwind uwtable
define dso_local i64 @be_lo_lseek(ptr noundef %0) #0 {
  %2 = alloca ptr, align 8
  %3 = alloca i32, align 4
  %4 = alloca i32, align 4
  %5 = alloca i32, align 4
  %6 = alloca i64, align 8
  store ptr %0, ptr %2, align 8
  call void @llvm.lifetime.start.p0(i64 4, ptr %3) #8
  %7 = load ptr, ptr %2, align 8
  %8 = getelementptr inbounds nuw %struct.FunctionCallInfoBaseData, ptr %7, i32 0, i32 6
  %9 = getelementptr inbounds [0 x %struct.NullableDatum], ptr %8, i64 0, i64 0
  %10 = getelementptr inbounds nuw %struct.NullableDatum, ptr %9, i32 0, i32 0
  %11 = load i64, ptr %10, align 8
  %12 = call i32 @DatumGetInt32(i64 noundef %11)
  store i32 %12, ptr %3, align 4
  call void @llvm.lifetime.start.p0(i64 4, ptr %4) #8
  %13 = load ptr, ptr %2, align 8
  %14 = getelementptr inbounds nuw %struct.FunctionCallInfoBaseData, ptr %13, i32 0, i32 6
  %15 = getelementptr inbounds [0 x %struct.NullableDatum], ptr %14, i64 0, i64 1
  %16 = getelementptr inbounds nuw %struct.NullableDatum, ptr %15, i32 0, i32 0
  %17 = load i64, ptr %16, align 8
  %18 = call i32 @DatumGetInt32(i64 noundef %17)
  store i32 %18, ptr %4, align 4
  call void @llvm.lifetime.start.p0(i64 4, ptr %5) #8
  %19 = load ptr, ptr %2, align 8
  %20 = getelementptr inbounds nuw %struct.FunctionCallInfoBaseData, ptr %19, i32 0, i32 6
  %21 = getelementptr inbounds [0 x %struct.NullableDatum], ptr %20, i64 0, i64 2
  %22 = getelementptr inbounds nuw %struct.NullableDatum, ptr %21, i32 0, i32 0
  %23 = load i64, ptr %22, align 8
  %24 = call i32 @DatumGetInt32(i64 noundef %23)
  store i32 %24, ptr %5, align 4
  call void @llvm.lifetime.start.p0(i64 8, ptr %6) #8
  %25 = load i32, ptr %3, align 4
  %26 = icmp slt i32 %25, 0
  br i1 %26, label %38, label %27

27:                                               ; preds = %1
  %28 = load i32, ptr %3, align 4
  %29 = load i32, ptr @cookies_size, align 4
  %30 = icmp sge i32 %28, %29
  br i1 %30, label %38, label %31

31:                                               ; preds = %27
  %32 = load ptr, ptr @cookies, align 8
  %33 = load i32, ptr %3, align 4
  %34 = sext i32 %33 to i64
  %35 = getelementptr inbounds ptr, ptr %32, i64 %34
  %36 = load ptr, ptr %35, align 8
  %37 = icmp eq ptr %36, null
  br i1 %37, label %38, label %51

38:                                               ; preds = %31, %27, %1
  br label %39

39:                                               ; preds = %38
  br i1 true, label %40, label %42

40:                                               ; preds = %39
  %41 = call zeroext i1 @errstart_cold(i32 noundef 21, ptr noundef null) #9
  br i1 %41, label %44, label %48

42:                                               ; preds = %39
  %43 = call zeroext i1 @errstart(i32 noundef 21, ptr noundef null)
  br i1 %43, label %44, label %48

44:                                               ; preds = %42, %40
  %45 = call i32 @errcode(i32 noundef 67137668)
  %46 = load i32, ptr %3, align 4
  %47 = call i32 (ptr, ...) @errmsg(ptr noundef @.str.1, i32 noundef %46)
  call void @errfinish(ptr noundef @.str.2, i32 noundef 216, ptr noundef @__func__.be_lo_lseek)
  br label %48

48:                                               ; preds = %44, %42, %40
  unreachable

49:                                               ; No predecessors!
  br label %50

50:                                               ; preds = %49
  br label %51

51:                                               ; preds = %50, %31
  %52 = load ptr, ptr @cookies, align 8
  %53 = load i32, ptr %3, align 4
  %54 = sext i32 %53 to i64
  %55 = getelementptr inbounds ptr, ptr %52, i64 %54
  %56 = load ptr, ptr %55, align 8
  %57 = load i32, ptr %4, align 4
  %58 = sext i32 %57 to i64
  %59 = load i32, ptr %5, align 4
  %60 = call i64 @inv_seek(ptr noundef %56, i64 noundef %58, i32 noundef %59)
  store i64 %60, ptr %6, align 8
  %61 = load i64, ptr %6, align 8
  %62 = load i64, ptr %6, align 8
  %63 = trunc i64 %62 to i32
  %64 = sext i32 %63 to i64
  %65 = icmp ne i64 %61, %64
  br i1 %65, label %66, label %79

66:                                               ; preds = %51
  br label %67

67:                                               ; preds = %66
  br i1 true, label %68, label %70

68:                                               ; preds = %67
  %69 = call zeroext i1 @errstart_cold(i32 noundef 21, ptr noundef null) #9
  br i1 %69, label %72, label %76

70:                                               ; preds = %67
  %71 = call zeroext i1 @errstart(i32 noundef 21, ptr noundef null)
  br i1 %71, label %72, label %76

72:                                               ; preds = %70, %68
  %73 = call i32 @errcode(i32 noundef 50331778)
  %74 = load i32, ptr %3, align 4
  %75 = call i32 (ptr, ...) @errmsg(ptr noundef @.str.5, i32 noundef %74)
  call void @errfinish(ptr noundef @.str.2, i32 noundef 225, ptr noundef @__func__.be_lo_lseek)
  br label %76

76:                                               ; preds = %72, %70, %68
  unreachable

77:                                               ; No predecessors!
  br label %78

78:                                               ; preds = %77
  br label %79

79:                                               ; preds = %78, %51
  %80 = load i64, ptr %6, align 8
  %81 = trunc i64 %80 to i32
  %82 = call i64 @Int32GetDatum(i32 noundef %81)
  call void @llvm.lifetime.end.p0(i64 8, ptr %6) #8
  call void @llvm.lifetime.end.p0(i64 4, ptr %5) #8
  call void @llvm.lifetime.end.p0(i64 4, ptr %4) #8
  call void @llvm.lifetime.end.p0(i64 4, ptr %3) #8
  ret i64 %82
}