; Function Attrs: nounwind uwtable
define dso_local range(i64 -2147483648, 2147483648) i64 @be_lo_lseek(ptr noundef readonly captures(none) %0) local_unnamed_addr #0 {
  %2 = getelementptr inbounds nuw i8, ptr %0, i64 32
  %3 = load i64, ptr %2, align 8
  %4 = trunc i64 %3 to i32
  %5 = getelementptr inbounds nuw i8, ptr %0, i64 48
  %6 = load i64, ptr %5, align 8
  %7 = getelementptr inbounds nuw i8, ptr %0, i64 64
  %8 = load i64, ptr %7, align 8
  %9 = trunc i64 %8 to i32
  %10 = icmp sgt i32 %4, -1
  %11 = load i32, ptr @cookies_size, align 4
  %.not = icmp sgt i32 %11, %4
  %or.cond = select i1 %10, i1 %.not, i1 false
  br i1 %or.cond, label %12, label %18

12:                                               ; preds = %1
  %13 = load ptr, ptr @cookies, align 8
  %14 = and i64 %3, 2147483647
  %15 = getelementptr inbounds nuw ptr, ptr %13, i64 %14
  %16 = load ptr, ptr %15, align 8
  %17 = icmp eq ptr %16, null
  br i1 %17, label %18, label %22

18:                                               ; preds = %12, %1
  %19 = tail call zeroext i1 @errstart_cold(i32 noundef 21, ptr noundef null) #11
  tail call void @llvm.assume(i1 %19)
  %20 = tail call i32 @errcode(i32 noundef 67137668) #10
  %21 = tail call i32 (ptr, ...) @errmsg(ptr noundef nonnull @.str.1, i32 noundef %4) #10
  tail call void @errfinish(ptr noundef nonnull @.str.2, i32 noundef 216, ptr noundef nonnull @__func__.be_lo_lseek) #10
  unreachable

22:                                               ; preds = %12
  %sext = shl i64 %6, 32
  %23 = ashr exact i64 %sext, 32
  %24 = tail call i64 @inv_seek(ptr noundef nonnull %16, i64 noundef %23, i32 noundef %9) #10
  %25 = add i64 %24, 2147483648
  %.not14 = icmp ult i64 %25, 4294967296
  br i1 %.not14, label %30, label %26

26:                                               ; preds = %22
  %27 = tail call zeroext i1 @errstart_cold(i32 noundef 21, ptr noundef null) #11
  tail call void @llvm.assume(i1 %27)
  %28 = tail call i32 @errcode(i32 noundef 50331778) #10
  %29 = tail call i32 (ptr, ...) @errmsg(ptr noundef nonnull @.str.5, i32 noundef %4) #10
  tail call void @errfinish(ptr noundef nonnull @.str.2, i32 noundef 225, ptr noundef nonnull @__func__.be_lo_lseek) #10
  unreachable

30:                                               ; preds = %22
  ret i64 %24
}